target datalayout = "e-m:e-p270:32:32-p271:32:32-p272:64:64-i64:64-i128:128-f80:128-n8:16:32:64-S128"
target triple = "x86_64-pc-linux-gnu"

%"class.toku::keyrange" = type <{ %struct.__toku_dbt, %struct.__toku_dbt, ptr, ptr, i8, [7 x i8] }>
%struct.__toku_dbt = type { ptr, i64, i64, i32 }

; Function Attrs: mustprogress nounwind uwtable
define noundef ptr @_ZNK4toku8keyrange13get_right_keyEv(ptr noundef nonnull align 8 dereferenceable(81) %0) #2 align 2 {
  %2 = alloca ptr, align 8
  %3 = alloca ptr, align 8
  store ptr %0, ptr %3, align 8, !tbaa !4
  %4 = load ptr, ptr %3, align 8
  %5 = getelementptr inbounds nuw %"class.toku::keyrange", ptr %4, i32 0, i32 3
  %6 = load ptr, ptr %5, align 8, !tbaa !17
  %7 = icmp ne ptr %6, null
  br i1 %7, label %8, label %11

8:                                                ; preds = %1
  %9 = getelementptr inbounds nuw %"class.toku::keyrange", ptr %4, i32 0, i32 3
  %10 = load ptr, ptr %9, align 8, !tbaa !17
  store ptr %10, ptr %2, align 8
  br label %13

11:                                               ; preds = %1
  %12 = getelementptr inbounds nuw %"class.toku::keyrange", ptr %4, i32 0, i32 1
  store ptr %12, ptr %2, align 8
  br label %13

13:                                               ; preds = %11, %8
  %14 = load ptr, ptr %2, align 8
  ret ptr %14
}

; Function Attrs: mustprogress nounwind uwtable
define noundef ptr @_ZNK4toku8keyrange12get_left_keyEv(ptr noundef nonnull align 8 dereferenceable(81) %0) #2 align 2 {
  %2 = alloca ptr, align 8
  %3 = alloca ptr, align 8
  store ptr %0, ptr %3, align 8, !tbaa !4
  %4 = load ptr, ptr %3, align 8
  %5 = getelementptr inbounds nuw %"class.toku::keyrange", ptr %4, i32 0, i32 2
  %6 = load ptr, ptr %5, align 8, !tbaa !11
  %7 = icmp ne ptr %6, null
  br i1 %7, label %8, label %11

8:                                                ; preds = %1
  %9 = getelementptr inbounds nuw %"class.toku::keyrange", ptr %4, i32 0, i32 2
  %10 = load ptr, ptr %9, align 8, !tbaa !11
  store ptr %10, ptr %2, align 8
  br label %13

11:                                               ; preds = %1
  %12 = getelementptr inbounds nuw %"class.toku::keyrange", ptr %4, i32 0, i32 0
  store ptr %12, ptr %2, align 8
  br label %13

13:                                               ; preds = %11, %8
  %14 = load ptr, ptr %2, align 8
  ret ptr %14
}

; Function Attrs: mustprogress uwtable
define noundef i64 @_ZNK4toku8keyrange15get_memory_sizeEv(ptr noundef nonnull align 8 dereferenceable(81) %0) #0 align 2 {
  %2 = alloca ptr, align 8
  %3 = alloca ptr, align 8
  %4 = alloca ptr, align 8
  store ptr %0, ptr %2, align 8, !tbaa !4
  %5 = load ptr, ptr %2, align 8
  call void @llvm.lifetime.start.p0(i64 8, ptr %3) #7
  %6 = call noundef ptr @_ZNK4toku8keyrange12get_left_keyEv(ptr noundef nonnull align 8 dereferenceable(81) %5)
  store ptr %6, ptr %3, align 8, !tbaa !9
  call void @llvm.lifetime.start.p0(i64 8, ptr %4) #7
  %7 = call noundef ptr @_ZNK4toku8keyrange13get_right_keyEv(ptr noundef nonnull align 8 dereferenceable(81) %5)
  store ptr %7, ptr %4, align 8, !tbaa !9
  %8 = load ptr, ptr %3, align 8, !tbaa !9
  %9 = getelementptr inbounds nuw %struct.__toku_dbt, ptr %8, i32 0, i32 1
  %10 = load i64, ptr %9, align 8, !tbaa !31
  %11 = load ptr, ptr %4, align 8, !tbaa !9
  %12 = getelementptr inbounds nuw %struct.__toku_dbt, ptr %11, i32 0, i32 1
  %13 = load i64, ptr %12, align 8, !tbaa !31
  %14 = add i64 %10, %13
  %15 = add i64 %14, 88
  call void @llvm.lifetime.end.p0(i64 8, ptr %4) #7
  call void @llvm.lifetime.end.p0(i64 8, ptr %3) #7
  ret i64 %15
}