; Function Attrs: mustprogress nofree norecurse nosync nounwind willreturn memory(read, inaccessiblemem: none) uwtable
define noundef i64 @_ZNK4toku8keyrange15get_memory_sizeEv(ptr noundef nonnull readonly align 8 captures(none) dereferenceable(81) %0) local_unnamed_addr #3 align 2 {
  %2 = getelementptr inbounds nuw i8, ptr %0, i64 64
  %3 = load ptr, ptr %2, align 8, !tbaa !14
  %.not.i = icmp eq ptr %3, null
  %..i = select i1 %.not.i, ptr %0, ptr %3
  %4 = getelementptr inbounds nuw i8, ptr %0, i64 72
  %5 = load ptr, ptr %4, align 8, !tbaa !15
  %.not.i3 = icmp eq ptr %5, null
  %6 = getelementptr inbounds nuw i8, ptr %0, i64 32
  %.0.i = select i1 %.not.i3, ptr %6, ptr %5
  %7 = getelementptr inbounds nuw i8, ptr %..i, i64 8
  %8 = load i64, ptr %7, align 8, !tbaa !30
  %9 = getelementptr inbounds nuw i8, ptr %.0.i, i64 8
  %10 = load i64, ptr %9, align 8, !tbaa !30
  %11 = add i64 %8, 88
  %12 = add i64 %11, %10
  ret i64 %12
}